; Function Attrs: nounwind uwtable
define dso_local i32 @acct_storage_p_modify_reservation(ptr noundef %0, ptr noundef %1) local_unnamed_addr #0 {
  %3 = alloca %struct.persist_msg_t, align 8
  %4 = alloca %struct.dbd_rec_msg_t, align 8
  call void @llvm.lifetime.start.p0(i64 24, ptr nonnull %3) #11
  %5 = getelementptr inbounds nuw i8, ptr %3, i64 16
  store i64 0, ptr %5, align 8
  call void @llvm.lifetime.start.p0(i64 8, ptr nonnull %4) #11
  %.not = icmp eq ptr %1, null
  br i1 %.not, label %6, label %8

6:                                                ; preds = %2
  %7 = tail call i32 (ptr, ...) @slurm_error(ptr noundef nonnull @.str.17) #11
  br label %34

8:                                                ; preds = %2
  %9 = getelementptr inbounds nuw i8, ptr %1, i64 32
  %10 = load i32, ptr %9, align 8
  %.not11 = icmp eq i32 %10, 0
  br i1 %.not11, label %11, label %13

11:                                               ; preds = %8
  %12 = tail call i32 (ptr, ...) @slurm_error(ptr noundef nonnull @.str.18) #11
  br label %34

13:                                               ; preds = %8
  %14 = getelementptr inbounds nuw i8, ptr %1, i64 80
  %15 = load i64, ptr %14, align 8
  %.not12 = icmp eq i64 %15, 0
  br i1 %.not12, label %16, label %18

16:                                               ; preds = %13
  %17 = tail call i32 (ptr, ...) @slurm_error(ptr noundef nonnull @.str.19) #11
  br label %34

18:                                               ; preds = %13
  %19 = getelementptr inbounds nuw i8, ptr %1, i64 8
  %20 = load ptr, ptr %19, align 8
  %.not13 = icmp eq ptr %20, null
  br i1 %.not13, label %23, label %21

21:                                               ; preds = %18
  %22 = load i8, ptr %20, align 1
  %.not14 = icmp eq i8 %22, 0
  br i1 %.not14, label %23, label %25

23:                                               ; preds = %21, %18
  %24 = tail call i32 (ptr, ...) @slurm_error(ptr noundef nonnull @.str.20) #11
  br label %34

25:                                               ; preds = %21
  %26 = getelementptr inbounds nuw i8, ptr %1, i64 88
  %27 = load i64, ptr %26, align 8
  %.not15 = icmp eq i64 %27, 0
  br i1 %.not15, label %28, label %30

28:                                               ; preds = %25
  %29 = tail call i32 (ptr, ...) @slurm_error(ptr noundef nonnull @.str.21) #11
  br label %34

30:                                               ; preds = %25
  store ptr %1, ptr %4, align 8
  %31 = getelementptr inbounds nuw i8, ptr %3, i64 16
  store i16 1463, ptr %31, align 8
  store ptr %0, ptr %3, align 8
  %32 = getelementptr inbounds nuw i8, ptr %3, i64 8
  store ptr %4, ptr %32, align 8
  %33 = call i32 @slurmdbd_agent_send(i16 noundef zeroext 11008, ptr noundef nonnull %3) #11
  br label %34

34:                                               ; preds = %30, %28, %23, %16, %11, %6
  %.0 = phi i32 [ %33, %30 ], [ -1, %28 ], [ -1, %23 ], [ -1, %16 ], [ -1, %11 ], [ -1, %6 ]
  call void @llvm.lifetime.end.p0(i64 8, ptr nonnull %4) #11
  call void @llvm.lifetime.end.p0(i64 24, ptr nonnull %3) #11
  ret i32 %.0
}